target datalayout = "e-m:e-p270:32:32-p271:32:32-p272:64:64-i64:64-i128:128-f80:128-n8:16:32:64-S128"
target triple = "x86_64-pc-linux-gnu"

%"class.std::__cxx11::basic_string" = type { %"struct.std::__cxx11::basic_string<char>::_Alloc_hider", i64, %union.anon.3 }
%"struct.std::__cxx11::basic_string<char>::_Alloc_hider" = type { ptr }
%union.anon.3 = type { i64, [8 x i8] }
%"class.(anonymous namespace)::TransformSelector" = type { %"class.cmList::TransformSelector", %"class.std::__cxx11::basic_string" }
%"class.cmList::TransformSelector" = type { ptr }

@_ZTIN6cmList15transform_errorE = linkonce_odr dso_local constant { ptr, ptr, ptr } { ptr getelementptr inbounds (ptr, ptr @_ZTVN10__cxxabiv120__si_class_type_infoE, i64 2), ptr @_ZTSN6cmList15transform_errorE, ptr @_ZTISt13runtime_error }, comdat, align 8
@.str.11 = private unnamed_addr constant [17 x i8] c" out of range (-\00", align 1
@.str.12 = private unnamed_addr constant [3 x i8] c", \00", align 1
@_ZTVN6cmList15transform_errorE = linkonce_odr dso_local unnamed_addr constant { [5 x ptr] } { [5 x ptr] [ptr null, ptr @_ZTIN6cmList15transform_errorE, ptr @_ZN6cmList15transform_errorD2Ev, ptr @_ZN6cmList15transform_errorD0Ev, ptr @_ZNKSt13runtime_error4whatEv] }, comdat, align 8
@.str.35 = private unnamed_addr constant [33 x i8] c"sub-command TRANSFORM, selector \00", align 1
@.str.36 = private unnamed_addr constant [10 x i8] c", index: \00", align 1
@.str.37 = private unnamed_addr constant [3 x i8] c").\00", align 1

; Function Attrs: mustprogress uwtable
define linkonce_odr dso_local void @_ZN6cmList15transform_errorC2ERKNSt7__cxx1112basic_stringIcSt11char_traitsIcESaIcEEE(ptr noundef nonnull align 8 dereferenceable(16) %0, ptr noundef nonnull align 8 dereferenceable(32) %1) unnamed_addr #4 comdat align 2 {
  %3 = alloca ptr, align 8
  %4 = alloca ptr, align 8
  store ptr %0, ptr %3, align 8
  store ptr %1, ptr %4, align 8
  %5 = load ptr, ptr %3, align 8
  %6 = load ptr, ptr %4, align 8
  call void @_ZNSt13runtime_errorC2ERKNSt7__cxx1112basic_stringIcSt11char_traitsIcESaIcEEE(ptr noundef nonnull align 8 dereferenceable(16) %5, ptr noundef nonnull align 8 dereferenceable(32) %6)
  store ptr getelementptr inbounds ({ [5 x ptr] }, ptr @_ZTVN6cmList15transform_errorE, i32 0, i32 0, i32 2), ptr %5, align 8
  ret void
}

; Function Attrs: mustprogress uwtable
define internal noundef i64 @_ZN12_GLOBAL__N_124TransformSelectorIndexes14NormalizeIndexElm(ptr noundef nonnull align 8 dereferenceable(64) %0, i64 noundef %1, i64 noundef %2) #4 align 2 personality ptr @__gxx_personality_v0 {
  %4 = alloca ptr, align 8
  %5 = alloca i64, align 8
  %6 = alloca i64, align 8
  %7 = alloca %"class.std::__cxx11::basic_string", align 8
  %8 = alloca i64, align 8
  %9 = alloca ptr, align 8
  %10 = alloca i32, align 4
  %11 = alloca i1, align 1
  store ptr %0, ptr %4, align 8
  store i64 %1, ptr %5, align 8
  store i64 %2, ptr %6, align 8
  %12 = load ptr, ptr %4, align 8
  %13 = load i64, ptr %5, align 8
  %14 = icmp slt i64 %13, 0
  br i1 %14, label %15, label %19

15:                                               ; preds = %3
  %16 = load i64, ptr %6, align 8
  %17 = load i64, ptr %5, align 8
  %18 = add nsw i64 %16, %17
  store i64 %18, ptr %5, align 8
  br label %19

19:                                               ; preds = %15, %3
  %20 = load i64, ptr %5, align 8
  %21 = icmp slt i64 %20, 0
  br i1 %21, label %26, label %22

22:                                               ; preds = %19
  %23 = load i64, ptr %6, align 8
  %24 = load i64, ptr %5, align 8
  %25 = icmp ule i64 %23, %24
  br i1 %25, label %26, label %45

26:                                               ; preds = %22, %19
  store i1 true, ptr %11, align 1
  %27 = call ptr @__cxa_allocate_exception(i64 16) #3
  %28 = getelementptr inbounds %"class.(anonymous namespace)::TransformSelector", ptr %12, i32 0, i32 1
  %29 = load i64, ptr %6, align 8
  %30 = sub i64 %29, 1
  store i64 %30, ptr %8, align 8
  invoke void @_Z8cmStrCatIRA33_KcRNSt7__cxx1112basic_stringIcSt11char_traitsIcESaIcEEEJRA10_S0_RlRA17_S0_RmRA3_S0_mSH_EES8_OT_OT0_DpOT1_(ptr dead_on_unwind writable sret(%"class.std::__cxx11::basic_string") align 8 %7, ptr noundef nonnull align 1 dereferenceable(33) @.str.35, ptr noundef nonnull align 8 dereferenceable(32) %28, ptr noundef nonnull align 1 dereferenceable(10) @.str.36, ptr noundef nonnull align 8 dereferenceable(8) %5, ptr noundef nonnull align 1 dereferenceable(17) @.str.11, ptr noundef nonnull align 8 dereferenceable(8) %6, ptr noundef nonnull align 1 dereferenceable(3) @.str.12, ptr noundef nonnull align 8 dereferenceable(8) %8, ptr noundef nonnull align 1 dereferenceable(3) @.str.37)
          to label %31 unwind label %33

31:                                               ; preds = %26
  invoke void @_ZN6cmList15transform_errorC2ERKNSt7__cxx1112basic_stringIcSt11char_traitsIcESaIcEEE(ptr noundef nonnull align 8 dereferenceable(16) %27, ptr noundef nonnull align 8 dereferenceable(32) %7)
          to label %32 unwind label %37

32:                                               ; preds = %31
  store i1 false, ptr %11, align 1
  invoke void @__cxa_throw(ptr %27, ptr @_ZTIN6cmList15transform_errorE, ptr @_ZN6cmList15transform_errorD2Ev) #16
          to label %52 unwind label %37

33:                                               ; preds = %26
  %34 = landingpad { ptr, i32 }
          cleanup
  %35 = extractvalue { ptr, i32 } %34, 0
  store ptr %35, ptr %9, align 8
  %36 = extractvalue { ptr, i32 } %34, 1
  store i32 %36, ptr %10, align 4
  br label %41

37:                                               ; preds = %32, %31
  %38 = landingpad { ptr, i32 }
          cleanup
  %39 = extractvalue { ptr, i32 } %38, 0
  store ptr %39, ptr %9, align 8
  %40 = extractvalue { ptr, i32 } %38, 1
  store i32 %40, ptr %10, align 4
  call void @_ZNSt7__cxx1112basic_stringIcSt11char_traitsIcESaIcEED1Ev(ptr noundef nonnull align 8 dereferenceable(32) %7) #3
  br label %41

41:                                               ; preds = %37, %33
  %42 = load i1, ptr %11, align 1
  br i1 %42, label %43, label %44

43:                                               ; preds = %41
  call void @__cxa_free_exception(ptr %27) #3
  br label %44

44:                                               ; preds = %43, %41
  br label %47

45:                                               ; preds = %22
  %46 = load i64, ptr %5, align 8
  ret i64 %46

47:                                               ; preds = %44
  %48 = load ptr, ptr %9, align 8
  %49 = load i32, ptr %10, align 4
  %50 = insertvalue { ptr, i32 } poison, ptr %48, 0
  %51 = insertvalue { ptr, i32 } %50, i32 %49, 1
  resume { ptr, i32 } %51

52:                                               ; preds = %32
  unreachable
}