; Function Attrs: mustprogress uwtable
define internal fastcc noundef i64 @_ZN12_GLOBAL__N_124TransformSelectorIndexes14NormalizeIndexElm(ptr noundef nonnull align 8 dereferenceable(64) %0, i64 noundef %1, i64 noundef %2) unnamed_addr #3 align 2 personality ptr @__gxx_personality_v0 {
  %4 = alloca i64, align 8
  %5 = alloca i64, align 8
  %6 = alloca %"class.std::__cxx11::basic_string", align 8
  %7 = alloca i64, align 8
  store i64 %1, ptr %4, align 8
  store i64 %2, ptr %5, align 8
  %8 = icmp slt i64 %1, 0
  br i1 %8, label %9, label %11

9:                                                ; preds = %3
  %10 = add nsw i64 %2, %1
  store i64 %10, ptr %4, align 8
  br label %11

11:                                               ; preds = %9, %3
  %12 = phi i64 [ %10, %9 ], [ %1, %3 ]
  %13 = icmp sgt i64 %12, -1
  %.not = icmp ult i64 %12, %2
  %or.cond = and i1 %13, %.not
  br i1 %or.cond, label %25, label %14

14:                                               ; preds = %11
  %15 = tail call ptr @__cxa_allocate_exception(i64 16) #27
  %16 = getelementptr inbounds i8, ptr %0, i64 8
  %17 = add i64 %2, -1
  store i64 %17, ptr %7, align 8
  invoke void @_Z8cmStrCatIRA33_KcRNSt7__cxx1112basic_stringIcSt11char_traitsIcESaIcEEEJRA10_S0_RlRA17_S0_RmRA3_S0_mSH_EES8_OT_OT0_DpOT1_(ptr dead_on_unwind nonnull writable sret(%"class.std::__cxx11::basic_string") align 8 %6, ptr noundef nonnull align 1 dereferenceable(33) @.str.35, ptr noundef nonnull align 8 dereferenceable(32) %16, ptr noundef nonnull align 1 dereferenceable(10) @.str.36, ptr noundef nonnull align 8 dereferenceable(8) %4, ptr noundef nonnull align 1 dereferenceable(17) @.str.11, ptr noundef nonnull align 8 dereferenceable(8) %5, ptr noundef nonnull align 1 dereferenceable(3) @.str.12, ptr noundef nonnull align 8 dereferenceable(8) %7, ptr noundef nonnull align 1 dereferenceable(3) @.str.37)
          to label %18 unwind label %.thread

18:                                               ; preds = %14
  invoke void @_ZNSt13runtime_errorC2ERKNSt7__cxx1112basic_stringIcSt11char_traitsIcESaIcEEE(ptr noundef nonnull align 8 dereferenceable(16) %15, ptr noundef nonnull align 8 dereferenceable(32) %6)
          to label %20 unwind label %.thread12

.thread12:                                        ; preds = %18
  %19 = landingpad { ptr, i32 }
          cleanup
  call void @_ZNSt7__cxx1112basic_stringIcSt11char_traitsIcESaIcEED1Ev(ptr noundef nonnull align 8 dereferenceable(32) %6) #27
  br label %24

20:                                               ; preds = %18
  store ptr getelementptr inbounds ({ [5 x ptr] }, ptr @_ZTVN6cmList15transform_errorE, i64 0, i32 0, i64 2), ptr %15, align 8
  invoke void @__cxa_throw(ptr nonnull %15, ptr nonnull @_ZTIN6cmList15transform_errorE, ptr nonnull @_ZN6cmList15transform_errorD2Ev) #28
          to label %27 unwind label %22

.thread:                                          ; preds = %14
  %21 = landingpad { ptr, i32 }
          cleanup
  br label %24

22:                                               ; preds = %20
  %23 = landingpad { ptr, i32 }
          cleanup
  call void @_ZNSt7__cxx1112basic_stringIcSt11char_traitsIcESaIcEED1Ev(ptr noundef nonnull align 8 dereferenceable(32) %6) #27
  br label %26

24:                                               ; preds = %.thread12, %.thread
  %.pn11 = phi { ptr, i32 } [ %21, %.thread ], [ %19, %.thread12 ]
  call void @__cxa_free_exception(ptr %15) #27
  br label %26

25:                                               ; preds = %11
  ret i64 %12

26:                                               ; preds = %22, %24
  %.pn10 = phi { ptr, i32 } [ %23, %22 ], [ %.pn11, %24 ]
  resume { ptr, i32 } %.pn10

27:                                               ; preds = %20
  unreachable
}